target datalayout = "e-m:e-p270:32:32-p271:32:32-p272:64:64-i64:64-i128:128-f80:128-n8:16:32:64-S128"
target triple = "x86_64-pc-linux-gnu"

@_ZN12_GLOBAL__N_112fclose_countE = internal global i32 0, align 4

; Function Attrs: mustprogress uwtable
define hidden noundef i32 @_ZN4test6fcloseEP8_IO_FILE(ptr noundef %0) #1 {
  %2 = alloca i32, align 4
  %3 = alloca ptr, align 8
  store ptr %0, ptr %3, align 8, !tbaa !14
  %4 = load i32, ptr @_ZN12_GLOBAL__N_112fclose_countE, align 4, !tbaa !12
  %5 = icmp ne i32 %4, 0
  br i1 %5, label %6, label %13

6:                                                ; preds = %1
  %7 = load i32, ptr @_ZN12_GLOBAL__N_112fclose_countE, align 4, !tbaa !12
  %8 = add nsw i32 %7, 1
  store i32 %8, ptr @_ZN12_GLOBAL__N_112fclose_countE, align 4, !tbaa !12
  %9 = icmp ne i32 %7, 3
  br i1 %9, label %10, label %12

10:                                               ; preds = %6
  %11 = call ptr @__errno_location() #20
  store i32 4, ptr %11, align 4, !tbaa !12
  store i32 -1, ptr %2, align 4
  br label %16

12:                                               ; preds = %6
  br label %13

13:                                               ; preds = %12, %1
  %14 = load ptr, ptr %3, align 8, !tbaa !14
  %15 = call i32 @fclose(ptr noundef %14)
  store i32 %15, ptr %2, align 4
  br label %16

16:                                               ; preds = %13, %10
  %17 = load i32, ptr %2, align 4
  ret i32 %17
}